; Function Attrs: mustprogress nounwind uwtable
define hidden void @_ZN7datalog15mk_loop_counterD2Ev(ptr nocapture noundef nonnull align 8 dereferenceable(120) %this) unnamed_addr #4 align 2 personality ptr @__gxx_personality_v0 {
entry:
  store ptr getelementptr inbounds ({ [6 x ptr] }, ptr @_ZTVN7datalog15mk_loop_counterE, i64 0, i32 0, i64 2), ptr %this, align 8
  %m_old2new = getelementptr inbounds i8, ptr %this, i64 96
  %0 = load ptr, ptr %m_old2new, align 8
  %cmp.i.i.i.i = icmp eq ptr %0, null
  br i1 %cmp.i.i.i.i, label %_ZN7obj_mapI9func_declPS0_ED2Ev.exit, label %for.cond.preheader.i.i.i.i

for.cond.preheader.i.i.i.i:                       ; preds = %entry
  invoke void @_ZN6memory10deallocateEPv(ptr noundef nonnull %0)
          to label %_ZN7obj_mapI9func_declPS0_ED2Ev.exit unwind label %terminate.lpad.i.i

terminate.lpad.i.i:                               ; preds = %for.cond.preheader.i.i.i.i
  %1 = landingpad { ptr, i32 }
          catch ptr null
  %2 = extractvalue { ptr, i32 } %1, 0
  tail call void @__clang_call_terminate(ptr %2) #15
  unreachable

_ZN7obj_mapI9func_declPS0_ED2Ev.exit:             ; preds = %entry, %for.cond.preheader.i.i.i.i
  store ptr null, ptr %m_old2new, align 8
  %m_new2old = getelementptr inbounds i8, ptr %this, i64 72
  %3 = load ptr, ptr %m_new2old, align 8
  %cmp.i.i.i.i1 = icmp eq ptr %3, null
  br i1 %cmp.i.i.i.i1, label %_ZN7obj_mapI9func_declPS0_ED2Ev.exit4, label %for.cond.preheader.i.i.i.i2

for.cond.preheader.i.i.i.i2:                      ; preds = %_ZN7obj_mapI9func_declPS0_ED2Ev.exit
  invoke void @_ZN6memory10deallocateEPv(ptr noundef nonnull %3)
          to label %_ZN7obj_mapI9func_declPS0_ED2Ev.exit4 unwind label %terminate.lpad.i.i3

terminate.lpad.i.i3:                              ; preds = %for.cond.preheader.i.i.i.i2
  %4 = landingpad { ptr, i32 }
          catch ptr null
  %5 = extractvalue { ptr, i32 } %4, 0
  tail call void @__clang_call_terminate(ptr %5) #15
  unreachable

_ZN7obj_mapI9func_declPS0_ED2Ev.exit4:            ; preds = %_ZN7obj_mapI9func_declPS0_ED2Ev.exit, %for.cond.preheader.i.i.i.i2
  store ptr null, ptr %m_new2old, align 8
  %m_refs = getelementptr inbounds i8, ptr %this, i64 56
  %m_nodes.i.i = getelementptr inbounds i8, ptr %this, i64 64
  %6 = load ptr, ptr %m_nodes.i.i, align 8
  %cmp.i.i.i = icmp eq ptr %6, null
  br i1 %cmp.i.i.i, label %_ZN10ref_vectorI9func_decl11ast_managerED2Ev.exit, label %_ZNK6vectorIP9func_declLb0EjE4sizeEv.exit.i.i

_ZNK6vectorIP9func_declLb0EjE4sizeEv.exit.i.i:    ; preds = %_ZN7obj_mapI9func_declPS0_ED2Ev.exit4
  %arrayidx.i.i.i = getelementptr inbounds i8, ptr %6, i64 -4
  %7 = load i32, ptr %arrayidx.i.i.i, align 4
  %8 = zext i32 %7 to i64
  %add.ptr.i.i = getelementptr inbounds ptr, ptr %6, i64 %8
  %cmp3.i.not.i.i = icmp eq i32 %7, 0
  br i1 %cmp3.i.not.i.i, label %if.then.i.i.i.i.i, label %for.body.i.i.i

for.body.i.i.i:                                   ; preds = %_ZNK6vectorIP9func_declLb0EjE4sizeEv.exit.i.i, %_ZN15ref_vector_coreI9func_decl19ref_manager_wrapperIS0_11ast_managerEE7dec_refEPS0_.exit.i.i.i
  %it.04.i.i.i = phi ptr [ %incdec.ptr.i.i.i, %_ZN15ref_vector_coreI9func_decl19ref_manager_wrapperIS0_11ast_managerEE7dec_refEPS0_.exit.i.i.i ], [ %6, %_ZNK6vectorIP9func_declLb0EjE4sizeEv.exit.i.i ]
  %9 = load ptr, ptr %it.04.i.i.i, align 8
  %10 = load ptr, ptr %m_refs, align 8
  %tobool.not.i.i.i.i.i.i = icmp eq ptr %9, null
  br i1 %tobool.not.i.i.i.i.i.i, label %_ZN15ref_vector_coreI9func_decl19ref_manager_wrapperIS0_11ast_managerEE7dec_refEPS0_.exit.i.i.i, label %if.then.i.i.i.i.i.i

if.then.i.i.i.i.i.i:                              ; preds = %for.body.i.i.i
  %m_ref_count.i.i.i.i.i.i.i = getelementptr inbounds i8, ptr %9, i64 8
  %11 = load i32, ptr %m_ref_count.i.i.i.i.i.i.i, align 4
  %dec.i.i.i.i.i.i.i = add i32 %11, -1
  store i32 %dec.i.i.i.i.i.i.i, ptr %m_ref_count.i.i.i.i.i.i.i, align 4
  %cmp.i.i.i.i.i.i = icmp eq i32 %dec.i.i.i.i.i.i.i, 0
  br i1 %cmp.i.i.i.i.i.i, label %if.then2.i.i.i.i.i.i, label %_ZN15ref_vector_coreI9func_decl19ref_manager_wrapperIS0_11ast_managerEE7dec_refEPS0_.exit.i.i.i

if.then2.i.i.i.i.i.i:                             ; preds = %if.then.i.i.i.i.i.i
  invoke void @_ZN11ast_manager11delete_nodeEP3ast(ptr noundef nonnull align 8 dereferenceable(976) %10, ptr noundef nonnull %9)
          to label %_ZN15ref_vector_coreI9func_decl19ref_manager_wrapperIS0_11ast_managerEE7dec_refEPS0_.exit.i.i.i unwind label %terminate.lpad.i.i5

_ZN15ref_vector_coreI9func_decl19ref_manager_wrapperIS0_11ast_managerEE7dec_refEPS0_.exit.i.i.i: ; preds = %if.then2.i.i.i.i.i.i, %if.then.i.i.i.i.i.i, %for.body.i.i.i
  %incdec.ptr.i.i.i = getelementptr inbounds i8, ptr %it.04.i.i.i, i64 8
  %cmp.i1.i.i = icmp ult ptr %incdec.ptr.i.i.i, %add.ptr.i.i
  br i1 %cmp.i1.i.i, label %for.body.i.i.i, label %invoke.cont8.i.i, !llvm.loop !4

invoke.cont8.i.i:                                 ; preds = %_ZN15ref_vector_coreI9func_decl19ref_manager_wrapperIS0_11ast_managerEE7dec_refEPS0_.exit.i.i.i
  %.pre.i.i = load ptr, ptr %m_nodes.i.i, align 8
  %tobool.not.i.i.i.i.i = icmp eq ptr %.pre.i.i, null
  br i1 %tobool.not.i.i.i.i.i, label %_ZN10ref_vectorI9func_decl11ast_managerED2Ev.exit, label %if.then.i.i.i.i.i

if.then.i.i.i.i.i:                                ; preds = %invoke.cont8.i.i, %_ZNK6vectorIP9func_declLb0EjE4sizeEv.exit.i.i
  %12 = phi ptr [ %.pre.i.i, %invoke.cont8.i.i ], [ %6, %_ZNK6vectorIP9func_declLb0EjE4sizeEv.exit.i.i ]
  %add.ptr.i.i.i.i.i.i = getelementptr inbounds i8, ptr %12, i64 -8
  invoke void @_ZN6memory10deallocateEPv(ptr noundef nonnull %add.ptr.i.i.i.i.i.i)
          to label %_ZN10ref_vectorI9func_decl11ast_managerED2Ev.exit unwind label %terminate.lpad.i.i.i.i

terminate.lpad.i.i.i.i:                           ; preds = %if.then.i.i.i.i.i
  %13 = landingpad { ptr, i32 }
          catch ptr null
  %14 = extractvalue { ptr, i32 } %13, 0
  tail call void @__clang_call_terminate(ptr %14) #15
  unreachable

terminate.lpad.i.i5:                              ; preds = %if.then2.i.i.i.i.i.i
  %15 = landingpad { ptr, i32 }
          catch ptr null
  %16 = extractvalue { ptr, i32 } %15, 0
  tail call void @__clang_call_terminate(ptr %16) #15
  unreachable

_ZN10ref_vectorI9func_decl11ast_managerED2Ev.exit: ; preds = %_ZN7obj_mapI9func_declPS0_ED2Ev.exit4, %invoke.cont8.i.i, %if.then.i.i.i.i.i
  ret void
}